; Function Attrs: null_pointer_is_valid sspstrong uwtable
define internal range(i32 -268435456, 268435456) i32 @dissect_LAI_PDU(ptr noundef %0, ptr noundef %1, ptr noundef %2, ptr readnone captures(none) %3) #0 {
  %5 = alloca %struct._asn1_ctx_t, align 8
  call void @llvm.lifetime.start.p0(i64 208, ptr nonnull %5) #4
  call void @asn1_ctx_init(ptr noundef nonnull %5, i32 noundef 1, i1 noundef zeroext true, ptr noundef %1)
  %6 = load i32, ptr @hf_ranap_LAI_PDU, align 4
  %7 = getelementptr inbounds nuw i8, ptr %5, i64 16
  %.val.i = load ptr, ptr %7, align 8
  %8 = getelementptr inbounds nuw i8, ptr %.val.i, i64 408
  %9 = load ptr, ptr %8, align 8
  %10 = load i32, ptr @proto_ranap, align 4
  %11 = call ptr @p_get_proto_data(ptr noundef %9, ptr noundef %.val.i, i32 noundef %10, i32 noundef 0)
  %12 = icmp eq ptr %11, null
  br i1 %12, label %13, label %ranap_get_private_data.exit.i

13:                                               ; preds = %4
  %14 = load ptr, ptr %8, align 8
  %15 = call noalias dereferenceable_or_null(12) ptr @wmem_alloc0(ptr noundef %14, i64 noundef 12) #5
  %16 = load ptr, ptr %8, align 8
  %17 = load i32, ptr @proto_ranap, align 4
  call void @p_add_proto_data(ptr noundef %16, ptr noundef %.val.i, i32 noundef %17, i32 noundef 0, ptr noundef %15)
  br label %ranap_get_private_data.exit.i

ranap_get_private_data.exit.i:                    ; preds = %13, %4
  %.0.i.i = phi ptr [ %15, %13 ], [ %11, %4 ]
  %18 = getelementptr inbounds nuw i8, ptr %.0.i.i, i64 8
  %19 = load i32, ptr %18, align 4
  %.not.i = icmp eq i32 %19, 2
  br i1 %.not.i, label %dissect_ranap_LAI.exit, label %20

20:                                               ; preds = %ranap_get_private_data.exit.i
  store i32 1, ptr %18, align 4
  br label %dissect_ranap_LAI.exit

dissect_ranap_LAI.exit:                           ; preds = %ranap_get_private_data.exit.i, %20
  %21 = load i32, ptr @ett_ranap_LAI, align 4
  %22 = call i32 @dissect_per_sequence(ptr noundef %0, i32 noundef 0, ptr noundef nonnull %5, ptr noundef %2, i32 noundef %6, i32 noundef %21, ptr noundef nonnull @LAI_sequence)
  %23 = add i32 %22, 7
  %24 = ashr i32 %23, 3
  call void @llvm.lifetime.end.p0(i64 208, ptr nonnull %5) #4
  ret i32 %24
}